target datalayout = "e-m:e-p270:32:32-p271:32:32-p272:64:64-i64:64-i128:128-f80:128-n8:16:32:64-S128"
target triple = "x86_64-pc-linux-gnu"

%struct.BrotliBitReader = type { i64, i64, ptr, ptr, ptr }
%struct.HuffmanCode = type { i8, i16 }

@kBrotliBitMask = external hidden constant [33 x i64], align 16

; Function Attrs: alwaysinline nounwind uwtable
define internal i64 @BitMask(i64 noundef %0) #6 {
  %2 = alloca i64, align 8
  %3 = alloca i64, align 8
  store i64 %0, ptr %3, align 8, !tbaa !22
  %4 = load i64, ptr %3, align 8, !tbaa !22
  %5 = call i1 @llvm.is.constant.i64(i64 %4)
  br i1 %5, label %6, label %10

6:                                                ; preds = %1
  %7 = load i64, ptr %3, align 8, !tbaa !22
  %8 = shl i64 -1, %7
  %9 = xor i64 %8, -1
  store i64 %9, ptr %2, align 8
  br label %14

10:                                               ; preds = %1
  %11 = load i64, ptr %3, align 8, !tbaa !22
  %12 = getelementptr inbounds nuw [33 x i64], ptr @kBrotliBitMask, i64 0, i64 %11
  %13 = load i64, ptr %12, align 8, !tbaa !22
  store i64 %13, ptr %2, align 8
  br label %14

14:                                               ; preds = %10, %6
  %15 = load i64, ptr %2, align 8
  ret i64 %15
}

; Function Attrs: alwaysinline nounwind uwtable
define internal void @BrotliDropBits(ptr noundef %0, i64 noundef %1) #6 {
  %3 = alloca ptr, align 8
  %4 = alloca i64, align 8
  store ptr %0, ptr %3, align 8, !tbaa !19
  store i64 %1, ptr %4, align 8, !tbaa !22
  %5 = load i64, ptr %4, align 8, !tbaa !22
  %6 = load ptr, ptr %3, align 8, !tbaa !19
  %7 = getelementptr inbounds nuw %struct.BrotliBitReader, ptr %6, i32 0, i32 1
  %8 = load i64, ptr %7, align 8, !tbaa !88
  %9 = sub i64 %8, %5
  store i64 %9, ptr %7, align 8, !tbaa !88
  %10 = load i64, ptr %4, align 8, !tbaa !22
  %11 = load ptr, ptr %3, align 8, !tbaa !19
  %12 = getelementptr inbounds nuw %struct.BrotliBitReader, ptr %11, i32 0, i32 0
  %13 = load i64, ptr %12, align 8, !tbaa !145
  %14 = lshr i64 %13, %10
  store i64 %14, ptr %12, align 8, !tbaa !145
  ret void
}

; Function Attrs: alwaysinline nounwind uwtable
define internal i64 @BrotliGetBitsUnmasked(ptr noundef %0) #6 {
  %2 = alloca ptr, align 8
  store ptr %0, ptr %2, align 8, !tbaa !19
  %3 = load ptr, ptr %2, align 8, !tbaa !19
  %4 = getelementptr inbounds nuw %struct.BrotliBitReader, ptr %3, i32 0, i32 0
  %5 = load i64, ptr %4, align 8, !tbaa !145
  ret i64 %5
}

; Function Attrs: alwaysinline nounwind uwtable
define internal i64 @BrotliGetAvailableBits(ptr noundef %0) #6 {
  %2 = alloca ptr, align 8
  store ptr %0, ptr %2, align 8, !tbaa !19
  %3 = load ptr, ptr %2, align 8, !tbaa !19
  %4 = getelementptr inbounds nuw %struct.BrotliBitReader, ptr %3, i32 0, i32 1
  %5 = load i64, ptr %4, align 8, !tbaa !88
  ret i64 %5
}

; Function Attrs: noinline nounwind uwtable
define internal i32 @SafeDecodeSymbol(ptr noundef %0, ptr noundef %1, ptr noundef %2) #5 {
  %4 = alloca i32, align 4
  %5 = alloca ptr, align 8
  %6 = alloca ptr, align 8
  %7 = alloca ptr, align 8
  %8 = alloca i64, align 8
  %9 = alloca i64, align 8
  %10 = alloca i32, align 4
  store ptr %0, ptr %5, align 8, !tbaa !19
  store ptr %1, ptr %6, align 8, !tbaa !19
  store ptr %2, ptr %7, align 8, !tbaa !41
  call void @llvm.lifetime.start.p0(i64 8, ptr %8) #11
  call void @llvm.lifetime.start.p0(i64 8, ptr %9) #11
  %11 = load ptr, ptr %6, align 8, !tbaa !19
  %12 = call i64 @BrotliGetAvailableBits(ptr noundef %11)
  store i64 %12, ptr %9, align 8, !tbaa !22
  %13 = load i64, ptr %9, align 8, !tbaa !22
  %14 = icmp eq i64 %13, 0
  br i1 %14, label %15, label %28

15:                                               ; preds = %3
  %16 = load ptr, ptr %5, align 8, !tbaa !19
  %17 = getelementptr inbounds nuw %struct.HuffmanCode, ptr %16, i32 0, i32 0
  %18 = load i8, ptr %17, align 2, !tbaa !153
  %19 = zext i8 %18 to i32
  %20 = icmp eq i32 %19, 0
  br i1 %20, label %21, label %27

21:                                               ; preds = %15
  %22 = load ptr, ptr %5, align 8, !tbaa !19
  %23 = getelementptr inbounds nuw %struct.HuffmanCode, ptr %22, i32 0, i32 1
  %24 = load i16, ptr %23, align 2, !tbaa !155
  %25 = zext i16 %24 to i64
  %26 = load ptr, ptr %7, align 8, !tbaa !41
  store i64 %25, ptr %26, align 8, !tbaa !22
  store i32 1, ptr %4, align 4
  store i32 1, ptr %10, align 4
  br label %102

27:                                               ; preds = %15
  store i32 0, ptr %4, align 4
  store i32 1, ptr %10, align 4
  br label %102

28:                                               ; preds = %3
  %29 = load ptr, ptr %6, align 8, !tbaa !19
  %30 = call i64 @BrotliGetBitsUnmasked(ptr noundef %29)
  store i64 %30, ptr %8, align 8, !tbaa !22
  %31 = load i64, ptr %8, align 8, !tbaa !22
  %32 = and i64 %31, 255
  %33 = load ptr, ptr %5, align 8, !tbaa !19
  %34 = getelementptr inbounds nuw %struct.HuffmanCode, ptr %33, i64 %32
  store ptr %34, ptr %5, align 8, !tbaa !19
  %35 = load ptr, ptr %5, align 8, !tbaa !19
  %36 = getelementptr inbounds nuw %struct.HuffmanCode, ptr %35, i32 0, i32 0
  %37 = load i8, ptr %36, align 2, !tbaa !153
  %38 = zext i8 %37 to i32
  %39 = icmp ule i32 %38, 8
  br i1 %39, label %40, label %59

40:                                               ; preds = %28
  %41 = load ptr, ptr %5, align 8, !tbaa !19
  %42 = getelementptr inbounds nuw %struct.HuffmanCode, ptr %41, i32 0, i32 0
  %43 = load i8, ptr %42, align 2, !tbaa !153
  %44 = zext i8 %43 to i64
  %45 = load i64, ptr %9, align 8, !tbaa !22
  %46 = icmp ule i64 %44, %45
  br i1 %46, label %47, label %58

47:                                               ; preds = %40
  %48 = load ptr, ptr %6, align 8, !tbaa !19
  %49 = load ptr, ptr %5, align 8, !tbaa !19
  %50 = getelementptr inbounds nuw %struct.HuffmanCode, ptr %49, i32 0, i32 0
  %51 = load i8, ptr %50, align 2, !tbaa !153
  %52 = zext i8 %51 to i64
  call void @BrotliDropBits(ptr noundef %48, i64 noundef %52)
  %53 = load ptr, ptr %5, align 8, !tbaa !19
  %54 = getelementptr inbounds nuw %struct.HuffmanCode, ptr %53, i32 0, i32 1
  %55 = load i16, ptr %54, align 2, !tbaa !155
  %56 = zext i16 %55 to i64
  %57 = load ptr, ptr %7, align 8, !tbaa !41
  store i64 %56, ptr %57, align 8, !tbaa !22
  store i32 1, ptr %4, align 4
  store i32 1, ptr %10, align 4
  br label %102

58:                                               ; preds = %40
  store i32 0, ptr %4, align 4
  store i32 1, ptr %10, align 4
  br label %102

59:                                               ; preds = %28
  %60 = load i64, ptr %9, align 8, !tbaa !22
  %61 = icmp ule i64 %60, 8
  br i1 %61, label %62, label %63

62:                                               ; preds = %59
  store i32 0, ptr %4, align 4
  store i32 1, ptr %10, align 4
  br label %102

63:                                               ; preds = %59
  %64 = load i64, ptr %8, align 8, !tbaa !22
  %65 = load ptr, ptr %5, align 8, !tbaa !19
  %66 = getelementptr inbounds nuw %struct.HuffmanCode, ptr %65, i32 0, i32 0
  %67 = load i8, ptr %66, align 2, !tbaa !153
  %68 = zext i8 %67 to i64
  %69 = call i64 @BitMask(i64 noundef %68)
  %70 = and i64 %64, %69
  %71 = lshr i64 %70, 8
  store i64 %71, ptr %8, align 8, !tbaa !22
  %72 = load i64, ptr %9, align 8, !tbaa !22
  %73 = sub i64 %72, 8
  store i64 %73, ptr %9, align 8, !tbaa !22
  %74 = load ptr, ptr %5, align 8, !tbaa !19
  %75 = getelementptr inbounds nuw %struct.HuffmanCode, ptr %74, i32 0, i32 1
  %76 = load i16, ptr %75, align 2, !tbaa !155
  %77 = zext i16 %76 to i64
  %78 = load i64, ptr %8, align 8, !tbaa !22
  %79 = add i64 %77, %78
  %80 = load ptr, ptr %5, align 8, !tbaa !19
  %81 = getelementptr inbounds nuw %struct.HuffmanCode, ptr %80, i64 %79
  store ptr %81, ptr %5, align 8, !tbaa !19
  %82 = load i64, ptr %9, align 8, !tbaa !22
  %83 = load ptr, ptr %5, align 8, !tbaa !19
  %84 = getelementptr inbounds nuw %struct.HuffmanCode, ptr %83, i32 0, i32 0
  %85 = load i8, ptr %84, align 2, !tbaa !153
  %86 = zext i8 %85 to i64
  %87 = icmp ult i64 %82, %86
  br i1 %87, label %88, label %89

88:                                               ; preds = %63
  store i32 0, ptr %4, align 4
  store i32 1, ptr %10, align 4
  br label %102

89:                                               ; preds = %63
  %90 = load ptr, ptr %6, align 8, !tbaa !19
  %91 = load ptr, ptr %5, align 8, !tbaa !19
  %92 = getelementptr inbounds nuw %struct.HuffmanCode, ptr %91, i32 0, i32 0
  %93 = load i8, ptr %92, align 2, !tbaa !153
  %94 = zext i8 %93 to i32
  %95 = add i32 8, %94
  %96 = zext i32 %95 to i64
  call void @BrotliDropBits(ptr noundef %90, i64 noundef %96)
  %97 = load ptr, ptr %5, align 8, !tbaa !19
  %98 = getelementptr inbounds nuw %struct.HuffmanCode, ptr %97, i32 0, i32 1
  %99 = load i16, ptr %98, align 2, !tbaa !155
  %100 = zext i16 %99 to i64
  %101 = load ptr, ptr %7, align 8, !tbaa !41
  store i64 %100, ptr %101, align 8, !tbaa !22
  store i32 1, ptr %4, align 4
  store i32 1, ptr %10, align 4
  br label %102

102:                                              ; preds = %89, %88, %62, %58, %47, %27, %21
  call void @llvm.lifetime.end.p0(i64 8, ptr %9) #11
  call void @llvm.lifetime.end.p0(i64 8, ptr %8) #11
  %103 = load i32, ptr %4, align 4
  ret i32 %103
}