; Function Attrs: mustprogress nofree noinline norecurse nosync nounwind willreturn memory(argmem: readwrite) uwtable
define internal fastcc range(i32 0, 2) i32 @SafeDecodeSymbol(ptr noundef readonly captures(none) %0, ptr noundef captures(none) %1, ptr noundef nonnull writeonly captures(none) %2) unnamed_addr #6 {
  %4 = getelementptr inbounds nuw i8, ptr %1, i64 8
  %5 = load i64, ptr %4, align 8, !tbaa !46
  %6 = icmp eq i64 %5, 0
  br i1 %6, label %7, label %10

7:                                                ; preds = %3
  %8 = load i8, ptr %0, align 2, !tbaa !63
  %9 = icmp eq i8 %8, 0
  br i1 %9, label %.sink.split, label %41

10:                                               ; preds = %3
  %11 = load i64, ptr %1, align 8, !tbaa !47
  %12 = and i64 %11, 255
  %13 = getelementptr inbounds nuw %struct.HuffmanCode, ptr %0, i64 %12
  %14 = load i8, ptr %13, align 2, !tbaa !63
  %15 = icmp ult i8 %14, 9
  br i1 %15, label %16, label %18

16:                                               ; preds = %10
  %17 = zext nneg i8 %14 to i64
  %.not = icmp ult i64 %5, %17
  br i1 %.not, label %41, label %.sink.split.sink.split

18:                                               ; preds = %10
  %19 = icmp ult i64 %5, 9
  br i1 %19, label %41, label %BitMask.exit

BitMask.exit:                                     ; preds = %18
  %20 = zext i8 %14 to i64
  %21 = getelementptr inbounds nuw [33 x i64], ptr @kBrotliBitMask, i64 0, i64 %20
  %22 = load i64, ptr %21, align 8, !tbaa !25
  %23 = and i64 %22, %11
  %24 = lshr i64 %23, 8
  %25 = add i64 %5, -8
  %26 = getelementptr inbounds nuw i8, ptr %13, i64 2
  %27 = load i16, ptr %26, align 2, !tbaa !65
  %28 = zext i16 %27 to i64
  %29 = getelementptr inbounds nuw %struct.HuffmanCode, ptr %13, i64 %24
  %30 = getelementptr inbounds nuw %struct.HuffmanCode, ptr %29, i64 %28
  %31 = load i8, ptr %30, align 2, !tbaa !63
  %32 = zext i8 %31 to i64
  %33 = icmp ult i64 %25, %32
  br i1 %33, label %41, label %34

34:                                               ; preds = %BitMask.exit
  %35 = add nuw nsw i64 %32, 8
  br label %.sink.split.sink.split

.sink.split.sink.split:                           ; preds = %16, %34
  %.sink33 = phi i64 [ %35, %34 ], [ %17, %16 ]
  %.sink31.ph = phi ptr [ %30, %34 ], [ %13, %16 ]
  %36 = sub i64 %5, %.sink33
  store i64 %36, ptr %4, align 8, !tbaa !46
  %37 = lshr i64 %11, %.sink33
  store i64 %37, ptr %1, align 8, !tbaa !47
  br label %.sink.split

.sink.split:                                      ; preds = %.sink.split.sink.split, %7
  %.sink31 = phi ptr [ %0, %7 ], [ %.sink31.ph, %.sink.split.sink.split ]
  %38 = getelementptr inbounds nuw i8, ptr %.sink31, i64 2
  %39 = load i16, ptr %38, align 2, !tbaa !65
  %40 = zext i16 %39 to i64
  store i64 %40, ptr %2, align 8, !tbaa !25
  br label %41

41:                                               ; preds = %.sink.split, %BitMask.exit, %18, %16, %7
  %.0 = phi i32 [ 0, %7 ], [ 0, %16 ], [ 0, %18 ], [ 0, %BitMask.exit ], [ 1, %.sink.split ]
  ret i32 %.0
}